; Function Attrs: nounwind uwtable
define ptr @l_Lean_Meta_GeneralizeTelescope_generalizeTelescopeAux___rarg___lambda__2(ptr noundef %0, ptr noundef %1, ptr noundef %2, ptr noundef %3, ptr noundef %4, ptr noundef %5, ptr readnone captures(none) %6, ptr noundef %7, ptr noundef %8, ptr noundef %9, ptr noundef %10, ptr noundef %11) local_unnamed_addr #0 {
  %13 = load ptr, ptr @l_Lean_Meta_GeneralizeTelescope_generalizeTelescopeAux___rarg___lambda__2___closed__2, align 8, !tbaa !13
  %14 = tail call ptr @l___private_Lean_CoreM_0__Lean_Core_mkFreshNameImp(ptr noundef %13, ptr noundef %9, ptr noundef %10, ptr noundef %11) #3
  %15 = getelementptr inbounds nuw i8, ptr %14, i64 8
  %16 = load ptr, ptr %15, align 8, !tbaa !13
  %17 = ptrtoint ptr %16 to i64
  %18 = and i64 %17, 1
  %.not = icmp eq i64 %18, 0
  br i1 %.not, label %19, label %lean_inc.exit29

19:                                               ; preds = %12
  %.val.i = load i32, ptr %16, align 4, !tbaa !9
  %20 = icmp sgt i32 %.val.i, 0
  br i1 %20, label %21, label %23, !prof !12

21:                                               ; preds = %19
  %22 = add nuw i32 %.val.i, 1
  store i32 %22, ptr %16, align 4, !tbaa !9
  br label %lean_inc.exit29

23:                                               ; preds = %19
  %.not.i30 = icmp eq i32 %.val.i, 0
  br i1 %.not.i30, label %lean_inc.exit29, label %24

24:                                               ; preds = %23
  tail call void @lean_inc_ref_cold(ptr noundef nonnull %16) #3
  br label %lean_inc.exit29

lean_inc.exit29:                                  ; preds = %24, %23, %21, %12
  %25 = getelementptr inbounds nuw i8, ptr %14, i64 16
  %26 = load ptr, ptr %25, align 8, !tbaa !13
  %27 = ptrtoint ptr %26 to i64
  %28 = and i64 %27, 1
  %.not34 = icmp eq i64 %28, 0
  br i1 %.not34, label %29, label %lean_inc.exit

29:                                               ; preds = %lean_inc.exit29
  %.val.i31 = load i32, ptr %26, align 4, !tbaa !9
  %30 = icmp sgt i32 %.val.i31, 0
  br i1 %30, label %31, label %33, !prof !12

31:                                               ; preds = %29
  %32 = add nuw i32 %.val.i31, 1
  store i32 %32, ptr %26, align 4, !tbaa !9
  br label %lean_inc.exit

33:                                               ; preds = %29
  %.not.i32 = icmp eq i32 %.val.i31, 0
  br i1 %.not.i32, label %lean_inc.exit, label %34

34:                                               ; preds = %33
  tail call void @lean_inc_ref_cold(ptr noundef nonnull %26) #3
  br label %lean_inc.exit

lean_inc.exit:                                    ; preds = %34, %33, %31, %lean_inc.exit29
  %35 = ptrtoint ptr %14 to i64
  %36 = and i64 %35, 1
  %.not35 = icmp eq i64 %36, 0
  br i1 %.not35, label %37, label %lean_dec.exit

37:                                               ; preds = %lean_inc.exit
  %38 = load i32, ptr %14, align 4, !tbaa !9
  %39 = icmp sgt i32 %38, 1
  br i1 %39, label %40, label %42, !prof !12

40:                                               ; preds = %37
  %41 = add nsw i32 %38, -1
  store i32 %41, ptr %14, align 4, !tbaa !9
  br label %lean_dec.exit

42:                                               ; preds = %37
  %.not.i = icmp eq i32 %38, 0
  br i1 %.not.i, label %lean_dec.exit, label %43

43:                                               ; preds = %42
  tail call void @lean_dec_ref_cold(ptr noundef nonnull %14) #3
  br label %lean_dec.exit

lean_dec.exit:                                    ; preds = %43, %42, %40, %lean_inc.exit
  tail call void @lean_inc_heartbeat() #3
  %44 = tail call noalias ptr @mi_malloc_small(i64 noundef 64) #3
  %45 = icmp eq ptr %44, null
  br i1 %45, label %46, label %lean_alloc_closure.exit

46:                                               ; preds = %lean_dec.exit
  tail call void @lean_internal_panic_out_of_memory() #4
  unreachable

lean_alloc_closure.exit:                          ; preds = %lean_dec.exit
  %47 = getelementptr inbounds nuw i8, ptr %44, i64 4
  store i32 1, ptr %44, align 4, !tbaa !9
  store i32 -184549312, ptr %47, align 4
  %48 = getelementptr inbounds nuw i8, ptr %44, i64 8
  store ptr @l_Lean_Meta_GeneralizeTelescope_generalizeTelescopeAux___rarg___lambda__1___boxed, ptr %48, align 8, !tbaa !13
  %49 = getelementptr inbounds nuw i8, ptr %44, i64 16
  store i16 11, ptr %49, align 8, !tbaa !16
  %50 = getelementptr inbounds nuw i8, ptr %44, i64 18
  store i16 5, ptr %50, align 2, !tbaa !16
  %51 = getelementptr inbounds nuw i8, ptr %44, i64 24
  store ptr %0, ptr %51, align 8, !tbaa !13
  %52 = getelementptr inbounds nuw i8, ptr %44, i64 32
  store ptr %1, ptr %52, align 8, !tbaa !13
  %53 = getelementptr inbounds nuw i8, ptr %44, i64 40
  store ptr %2, ptr %53, align 8, !tbaa !13
  %54 = getelementptr inbounds nuw i8, ptr %44, i64 48
  store ptr %3, ptr %54, align 8, !tbaa !13
  %55 = getelementptr inbounds nuw i8, ptr %44, i64 56
  store ptr %4, ptr %55, align 8, !tbaa !13
  %56 = tail call ptr @l_Lean_Meta_withLocalDecl___at_Lean_Meta_addPPExplicitToExposeDiff_visit___spec__4___rarg(ptr noundef %16, i8 noundef zeroext 0, ptr noundef %5, ptr noundef nonnull %44, i8 noundef zeroext 0, ptr noundef %7, ptr noundef %8, ptr noundef %9, ptr noundef %10, ptr noundef %26) #3
  ret ptr %56
}